target datalayout = "e-m:e-p270:32:32-p271:32:32-p272:64:64-i64:64-i128:128-f80:128-n8:16:32:64-S128"
target triple = "x86_64-pc-linux-gnu"

%"class.OpenColorIO_v2_5dev::Context" = type { ptr }

; Function Attrs: mustprogress nounwind uwtable
define void @_ZN19OpenColorIO_v2_5dev7ContextD2Ev(ptr noundef nonnull align 8 dereferenceable(8) %0) unnamed_addr #7 align 2 {
  %2 = alloca ptr, align 8
  store ptr %0, ptr %2, align 8, !tbaa !3
  %3 = load ptr, ptr %2, align 8
  %4 = getelementptr inbounds nuw %"class.OpenColorIO_v2_5dev::Context", ptr %3, i32 0, i32 0
  %5 = load ptr, ptr %4, align 8, !tbaa !11
  %6 = icmp eq ptr %5, null
  br i1 %6, label %8, label %7

7:                                                ; preds = %1
  call void @_ZN19OpenColorIO_v2_5dev7Context4ImplD2Ev(ptr noundef nonnull align 8 dereferenceable(328) %5) #3
  call void @_ZdlPvm(ptr noundef %5, i64 noundef 328) #22
  br label %8

8:                                                ; preds = %7, %1
  %9 = getelementptr inbounds nuw %"class.OpenColorIO_v2_5dev::Context", ptr %3, i32 0, i32 0
  store ptr null, ptr %9, align 8, !tbaa !11
  ret void
}